target datalayout = "e-m:e-p270:32:32-p271:32:32-p272:64:64-i64:64-i128:128-f80:128-n8:16:32:64-S128"
target triple = "x86_64-pc-linux-gnu"

%struct.mbedtls_md_context_t = type { ptr, ptr, ptr }

@_ZTISt13runtime_error = external constant ptr
@.str.4 = private unnamed_addr constant [20 x i8] c"failed to init hmac\00", align 1
@.str.5 = private unnamed_addr constant [14 x i8] c"HMAC256 Error\00", align 1

; Function Attrs: mustprogress uwtable
define hidden void @_ZN14duckdb_mbedtls14MbedTlsWrapper7Hmac256EPKcmS2_mPc(ptr noundef %0, i64 noundef %1, ptr noundef %2, i64 noundef %3, ptr noundef %4) #0 align 2 personality ptr @__gxx_personality_v0 {
  %6 = alloca ptr, align 8
  %7 = alloca i64, align 8
  %8 = alloca ptr, align 8
  %9 = alloca i64, align 8
  %10 = alloca ptr, align 8
  %11 = alloca %struct.mbedtls_md_context_t, align 8
  %12 = alloca ptr, align 8
  %13 = alloca ptr, align 8
  %14 = alloca i32, align 4
  store ptr %0, ptr %6, align 8, !tbaa !3
  store i64 %1, ptr %7, align 8, !tbaa !8
  store ptr %2, ptr %8, align 8, !tbaa !3
  store i64 %3, ptr %9, align 8, !tbaa !8
  store ptr %4, ptr %10, align 8, !tbaa !3
  call void @llvm.lifetime.start.p0(i64 24, ptr %11) #13
  call void @llvm.lifetime.start.p0(i64 8, ptr %12) #13
  %15 = call ptr @mbedtls_md_info_from_type(i32 noundef 4)
  store ptr %15, ptr %12, align 8, !tbaa !19
  %16 = load ptr, ptr %12, align 8, !tbaa !19
  %17 = icmp ne ptr %16, null
  br i1 %17, label %25, label %18

18:                                               ; preds = %5
  %19 = call ptr @__cxa_allocate_exception(i64 16) #13
  invoke void @_ZNSt13runtime_errorC1EPKc(ptr noundef nonnull align 8 dereferenceable(16) %19, ptr noundef @.str.4)
          to label %20 unwind label %21

20:                                               ; preds = %18
  call void @__cxa_throw(ptr %19, ptr @_ZTISt13runtime_error, ptr @_ZNSt13runtime_errorD1Ev) #14
  unreachable

21:                                               ; preds = %18
  %22 = landingpad { ptr, i32 }
          cleanup
  %23 = extractvalue { ptr, i32 } %22, 0
  store ptr %23, ptr %13, align 8
  %24 = extractvalue { ptr, i32 } %22, 1
  store i32 %24, ptr %14, align 4
  call void @__cxa_free_exception(ptr %19) #13
  br label %51

25:                                               ; preds = %5
  %26 = load ptr, ptr %12, align 8, !tbaa !19
  %27 = call i32 @mbedtls_md_setup(ptr noundef %11, ptr noundef %26, i32 noundef 1)
  %28 = icmp ne i32 %27, 0
  br i1 %28, label %43, label %29

29:                                               ; preds = %25
  %30 = load ptr, ptr %6, align 8, !tbaa !3
  %31 = load i64, ptr %7, align 8, !tbaa !8
  %32 = call i32 @mbedtls_md_hmac_starts(ptr noundef %11, ptr noundef %30, i64 noundef %31)
  %33 = icmp ne i32 %32, 0
  br i1 %33, label %43, label %34

34:                                               ; preds = %29
  %35 = load ptr, ptr %8, align 8, !tbaa !3
  %36 = load i64, ptr %9, align 8, !tbaa !8
  %37 = call i32 @mbedtls_md_hmac_update(ptr noundef %11, ptr noundef %35, i64 noundef %36)
  %38 = icmp ne i32 %37, 0
  br i1 %38, label %43, label %39

39:                                               ; preds = %34
  %40 = load ptr, ptr %10, align 8, !tbaa !3
  %41 = call i32 @mbedtls_md_hmac_finish(ptr noundef %11, ptr noundef %40)
  %42 = icmp ne i32 %41, 0
  br i1 %42, label %43, label %50

43:                                               ; preds = %39, %34, %29, %25
  %44 = call ptr @__cxa_allocate_exception(i64 16) #13
  invoke void @_ZNSt13runtime_errorC1EPKc(ptr noundef nonnull align 8 dereferenceable(16) %44, ptr noundef @.str.5)
          to label %45 unwind label %46

45:                                               ; preds = %43
  call void @__cxa_throw(ptr %44, ptr @_ZTISt13runtime_error, ptr @_ZNSt13runtime_errorD1Ev) #14
  unreachable

46:                                               ; preds = %43
  %47 = landingpad { ptr, i32 }
          cleanup
  %48 = extractvalue { ptr, i32 } %47, 0
  store ptr %48, ptr %13, align 8
  %49 = extractvalue { ptr, i32 } %47, 1
  store i32 %49, ptr %14, align 4
  call void @__cxa_free_exception(ptr %44) #13
  br label %51

50:                                               ; preds = %39
  call void @mbedtls_md_free(ptr noundef %11)
  call void @llvm.lifetime.end.p0(i64 8, ptr %12) #13
  call void @llvm.lifetime.end.p0(i64 24, ptr %11) #13
  ret void

51:                                               ; preds = %46, %21
  call void @llvm.lifetime.end.p0(i64 8, ptr %12) #13
  call void @llvm.lifetime.end.p0(i64 24, ptr %11) #13
  br label %52

52:                                               ; preds = %51
  %53 = load ptr, ptr %13, align 8
  %54 = load i32, ptr %14, align 4
  %55 = insertvalue { ptr, i32 } poison, ptr %53, 0
  %56 = insertvalue { ptr, i32 } %55, i32 %54, 1
  resume { ptr, i32 } %56
}