; Function Attrs: mustprogress uwtable
define hidden void @_ZN14duckdb_mbedtls14MbedTlsWrapper7Hmac256EPKcmS2_mPc(ptr noundef %0, i64 noundef %1, ptr noundef %2, i64 noundef %3, ptr noundef %4) local_unnamed_addr #0 align 2 personality ptr @__gxx_personality_v0 {
  %6 = alloca %struct.mbedtls_md_context_t, align 8
  call void @llvm.lifetime.start.p0(i64 24, ptr nonnull %6) #19
  %7 = tail call ptr @mbedtls_md_info_from_type(i32 noundef 4)
  %.not = icmp eq ptr %7, null
  br i1 %.not, label %8, label %13

8:                                                ; preds = %5
  %9 = tail call ptr @__cxa_allocate_exception(i64 16) #19
  invoke void @_ZNSt13runtime_errorC1EPKc(ptr noundef nonnull align 8 dereferenceable(16) %9, ptr noundef nonnull @.str.4)
          to label %10 unwind label %11

10:                                               ; preds = %8
  tail call void @__cxa_throw(ptr nonnull %9, ptr nonnull @_ZTISt13runtime_error, ptr nonnull @_ZNSt13runtime_errorD1Ev) #20
  unreachable

11:                                               ; preds = %8
  %12 = landingpad { ptr, i32 }
          cleanup
  tail call void @__cxa_free_exception(ptr nonnull %9) #19
  br label %27

13:                                               ; preds = %5
  %14 = call i32 @mbedtls_md_setup(ptr noundef nonnull %6, ptr noundef nonnull %7, i32 noundef 1)
  %.not10 = icmp eq i32 %14, 0
  br i1 %.not10, label %15, label %21

15:                                               ; preds = %13
  %16 = call i32 @mbedtls_md_hmac_starts(ptr noundef nonnull %6, ptr noundef %0, i64 noundef %1)
  %.not11 = icmp eq i32 %16, 0
  br i1 %.not11, label %17, label %21

17:                                               ; preds = %15
  %18 = call i32 @mbedtls_md_hmac_update(ptr noundef nonnull %6, ptr noundef %2, i64 noundef %3)
  %.not12 = icmp eq i32 %18, 0
  br i1 %.not12, label %19, label %21

19:                                               ; preds = %17
  %20 = call i32 @mbedtls_md_hmac_finish(ptr noundef nonnull %6, ptr noundef %4)
  %.not13 = icmp eq i32 %20, 0
  br i1 %.not13, label %26, label %21

21:                                               ; preds = %19, %17, %15, %13
  %22 = call ptr @__cxa_allocate_exception(i64 16) #19
  invoke void @_ZNSt13runtime_errorC1EPKc(ptr noundef nonnull align 8 dereferenceable(16) %22, ptr noundef nonnull @.str.5)
          to label %23 unwind label %24

23:                                               ; preds = %21
  call void @__cxa_throw(ptr nonnull %22, ptr nonnull @_ZTISt13runtime_error, ptr nonnull @_ZNSt13runtime_errorD1Ev) #20
  unreachable

24:                                               ; preds = %21
  %25 = landingpad { ptr, i32 }
          cleanup
  call void @__cxa_free_exception(ptr nonnull %22) #19
  br label %27

26:                                               ; preds = %19
  call void @mbedtls_md_free(ptr noundef nonnull %6)
  call void @llvm.lifetime.end.p0(i64 24, ptr nonnull %6) #19
  ret void

27:                                               ; preds = %24, %11
  %.pn = phi { ptr, i32 } [ %25, %24 ], [ %12, %11 ]
  call void @llvm.lifetime.end.p0(i64 24, ptr nonnull %6) #19
  resume { ptr, i32 } %.pn
}